target datalayout = "e-m:e-p270:32:32-p271:32:32-p272:64:64-i64:64-i128:128-f80:128-n8:16:32:64-S128"
target triple = "x86_64-pc-linux-gnu"

%"class.icu_77::UMutex" = type { [40 x i8], %"struct.std::atomic", ptr }
%"struct.std::atomic" = type { %"struct.std::__atomic_base" }
%"struct.std::__atomic_base" = type { ptr }
%"class.icu_77::UObject" = type { ptr }
%"class.icu_77::UnicodeString" = type { %"class.icu_77::Replaceable", %"union.icu_77::UnicodeString::StackBufferOrFields" }
%"class.icu_77::Replaceable" = type { %"class.icu_77::UObject" }
%"union.icu_77::UnicodeString::StackBufferOrFields" = type { %struct.anon.0, [32 x i8] }
%struct.anon.0 = type { i16, i32, i32, ptr }
%struct.anon = type { i16, [27 x i16] }
%"class.icu_77::Hashtable" = type { ptr, %struct.UHashtable }
%struct.UHashtable = type { ptr, ptr, ptr, ptr, ptr, ptr, i32, i32, i32, i32, float, float, i8, i8 }
%"class.icu_77::Mutex" = type { ptr }

@_ZN6icu_77L4lockE = internal global %"class.icu_77::UMutex" zeroinitializer, align 8
@_ZTVN6icu_777UObjectE = available_externally unnamed_addr constant { [5 x ptr] } { [5 x ptr] [ptr null, ptr @_ZTIN6icu_777UObjectE, ptr @_ZN6icu_777UObjectD1Ev, ptr @_ZN6icu_777UObjectD0Ev, ptr @_ZNK6icu_777UObject17getDynamicClassIDEv] }, align 8

; Function Attrs: inlinehint mustprogress nounwind uwtable
define linkonce_odr void @_ZN6icu_777UObjectC2Ev(ptr noundef nonnull align 8 dereferenceable(8) %0) unnamed_addr #1 comdat align 2 {
  %2 = alloca ptr, align 8
  store ptr %0, ptr %2, align 8, !tbaa !12
  %3 = load ptr, ptr %2, align 8
  store ptr getelementptr inbounds inrange(-16, 24) ({ [5 x ptr] }, ptr @_ZTVN6icu_777UObjectE, i32 0, i32 0, i32 2), ptr %3, align 8, !tbaa !10
  ret void
}

; Function Attrs: inlinehint mustprogress nounwind uwtable
define linkonce_odr void @_ZN6icu_7711ReplaceableC2Ev(ptr noundef nonnull align 8 dereferenceable(8) %0) unnamed_addr #1 comdat align 2 {
  %2 = alloca ptr, align 8
  store ptr %0, ptr %2, align 8, !tbaa !118
  %3 = load ptr, ptr %2, align 8
  call void @_ZN6icu_777UObjectC2Ev(ptr noundef nonnull align 8 dereferenceable(8) %3) #10
  store ptr getelementptr inbounds inrange(-16, 88) ({ [13 x ptr] }, ptr @_ZTVN6icu_7711ReplaceableE, i32 0, i32 0, i32 2), ptr %3, align 8, !tbaa !10
  ret void
}

; Function Attrs: mustprogress nounwind uwtable
define linkonce_odr void @_ZN6icu_775MutexD2Ev(ptr noundef nonnull align 8 dereferenceable(8) %0) unnamed_addr #4 comdat align 2 personality ptr @__gxx_personality_v0 {
  %2 = alloca ptr, align 8
  store ptr %0, ptr %2, align 8, !tbaa !58
  %3 = load ptr, ptr %2, align 8
  %4 = getelementptr inbounds nuw %"class.icu_77::Mutex", ptr %3, i32 0, i32 0
  %5 = load ptr, ptr %4, align 8, !tbaa !62
  invoke void @umtx_unlock_77(ptr noundef %5)
          to label %6 unwind label %7

6:                                                ; preds = %1
  ret void

7:                                                ; preds = %1
  %8 = landingpad { ptr, i32 }
          catch ptr null
  %9 = extractvalue { ptr, i32 } %8, 0
  call void @__clang_call_terminate(ptr %9) #11
  unreachable
}

; Function Attrs: inlinehint mustprogress uwtable
define linkonce_odr void @_ZN6icu_7713UnicodeStringC2Ev(ptr noundef nonnull align 8 dereferenceable(64) %0) unnamed_addr #5 comdat align 2 {
  %2 = alloca ptr, align 8
  store ptr %0, ptr %2, align 8, !tbaa !8
  %3 = load ptr, ptr %2, align 8
  call void @_ZN6icu_7711ReplaceableC2Ev(ptr noundef nonnull align 8 dereferenceable(8) %3)
  store ptr getelementptr inbounds inrange(-16, 88) ({ [13 x ptr] }, ptr @_ZTVN6icu_7713UnicodeStringE, i32 0, i32 0, i32 2), ptr %3, align 8, !tbaa !10
  %4 = getelementptr inbounds nuw %"class.icu_77::UnicodeString", ptr %3, i32 0, i32 1
  %5 = getelementptr inbounds nuw %struct.anon, ptr %4, i32 0, i32 0
  store i16 2, ptr %5, align 8, !tbaa !22
  ret void
}

; Function Attrs: inlinehint mustprogress uwtable
define linkonce_odr noundef ptr @_ZNK6icu_779Hashtable3getERKNS_13UnicodeStringE(ptr noundef nonnull align 8 dereferenceable(88) %0, ptr noundef nonnull align 8 dereferenceable(64) %1) #5 comdat align 2 {
  %3 = alloca ptr, align 8
  %4 = alloca ptr, align 8
  store ptr %0, ptr %3, align 8, !tbaa !35
  store ptr %1, ptr %4, align 8, !tbaa !8
  %5 = load ptr, ptr %3, align 8
  %6 = getelementptr inbounds nuw %"class.icu_77::Hashtable", ptr %5, i32 0, i32 0
  %7 = load ptr, ptr %6, align 8, !tbaa !37
  %8 = load ptr, ptr %4, align 8, !tbaa !8
  %9 = call ptr @uhash_get_77(ptr noundef %7, ptr noundef %8)
  ret ptr %9
}

; Function Attrs: mustprogress uwtable
define linkonce_odr void @_ZN6icu_775MutexC2EPNS_6UMutexE(ptr noundef nonnull align 8 dereferenceable(8) %0, ptr noundef %1) unnamed_addr #0 comdat align 2 {
  %3 = alloca ptr, align 8
  %4 = alloca ptr, align 8
  store ptr %0, ptr %3, align 8, !tbaa !58
  store ptr %1, ptr %4, align 8, !tbaa !60
  %5 = load ptr, ptr %3, align 8
  %6 = getelementptr inbounds nuw %"class.icu_77::Mutex", ptr %5, i32 0, i32 0
  %7 = load ptr, ptr %4, align 8, !tbaa !60
  store ptr %7, ptr %6, align 8, !tbaa !62
  %8 = getelementptr inbounds nuw %"class.icu_77::Mutex", ptr %5, i32 0, i32 0
  %9 = load ptr, ptr %8, align 8, !tbaa !62
  call void @umtx_lock_77(ptr noundef %9)
  ret void
}

; Function Attrs: mustprogress uwtable
define noundef nonnull align 8 dereferenceable(64) ptr @_ZNK6icu_7710ICUService14getDisplayNameERKNS_13UnicodeStringERS1_RKNS_6LocaleE(ptr noundef nonnull align 8 dereferenceable(120) %0, ptr noundef nonnull align 8 dereferenceable(64) %1, ptr noundef nonnull align 8 dereferenceable(64) %2, ptr noundef nonnull align 8 dereferenceable(217) %3) #0 align 2 personality ptr @__gxx_personality_v0 {
  %5 = alloca ptr, align 8
  %6 = alloca ptr, align 8
  %7 = alloca ptr, align 8
  %8 = alloca ptr, align 8
  %9 = alloca ptr, align 8
  %10 = alloca i32, align 4
  %11 = alloca %"class.icu_77::Mutex", align 8
  %12 = alloca ptr, align 8
  %13 = alloca ptr, align 8
  %14 = alloca i32, align 4
  %15 = alloca ptr, align 8
  %16 = alloca i32, align 4
  %17 = alloca ptr, align 8
  %18 = alloca %"class.icu_77::UnicodeString", align 8
  store ptr %0, ptr %6, align 8, !tbaa !30
  store ptr %1, ptr %7, align 8, !tbaa !8
  store ptr %2, ptr %8, align 8, !tbaa !8
  store ptr %3, ptr %9, align 8, !tbaa !43
  %19 = load ptr, ptr %6, align 8
  call void @llvm.lifetime.start.p0(i64 4, ptr %10) #10
  store i32 0, ptr %10, align 4, !tbaa !33
  call void @llvm.lifetime.start.p0(i64 8, ptr %11) #10
  call void @_ZN6icu_775MutexC2EPNS_6UMutexE(ptr noundef nonnull align 8 dereferenceable(8) %11, ptr noundef @_ZN6icu_77L4lockE)
  call void @llvm.lifetime.start.p0(i64 8, ptr %12) #10
  %20 = invoke noundef ptr @_ZNK6icu_7710ICUService15getVisibleIDMapER10UErrorCode(ptr noundef nonnull align 8 dereferenceable(120) %19, ptr noundef nonnull align 4 dereferenceable(4) %10)
          to label %21 unwind label %42

21:                                               ; preds = %4
  store ptr %20, ptr %12, align 8, !tbaa !35
  %22 = load ptr, ptr %12, align 8, !tbaa !35
  %23 = icmp ne ptr %22, null
  br i1 %23, label %24, label %132

24:                                               ; preds = %21
  call void @llvm.lifetime.start.p0(i64 8, ptr %15) #10
  %25 = load ptr, ptr %12, align 8, !tbaa !35
  %26 = load ptr, ptr %7, align 8, !tbaa !8
  %27 = invoke noundef ptr @_ZNK6icu_779Hashtable3getERKNS_13UnicodeStringE(ptr noundef nonnull align 8 dereferenceable(88) %25, ptr noundef nonnull align 8 dereferenceable(64) %26)
          to label %28 unwind label %46

28:                                               ; preds = %24
  store ptr %27, ptr %15, align 8, !tbaa !18
  %29 = load ptr, ptr %15, align 8, !tbaa !18
  %30 = icmp ne ptr %29, null
  br i1 %30, label %31, label %50

31:                                               ; preds = %28
  %32 = load ptr, ptr %15, align 8, !tbaa !18
  %33 = load ptr, ptr %7, align 8, !tbaa !8
  %34 = load ptr, ptr %9, align 8, !tbaa !43
  %35 = load ptr, ptr %8, align 8, !tbaa !8
  %36 = load ptr, ptr %32, align 8, !tbaa !10
  %37 = getelementptr inbounds ptr, ptr %36, i64 5
  %38 = load ptr, ptr %37, align 8
  %39 = invoke noundef nonnull align 8 dereferenceable(64) ptr %38(ptr noundef nonnull align 8 dereferenceable(8) %32, ptr noundef nonnull align 8 dereferenceable(64) %33, ptr noundef nonnull align 8 dereferenceable(217) %34, ptr noundef nonnull align 8 dereferenceable(64) %35)
          to label %40 unwind label %46

40:                                               ; preds = %31
  %41 = load ptr, ptr %8, align 8, !tbaa !8
  store ptr %41, ptr %5, align 8
  store i32 1, ptr %16, align 4
  br label %127

42:                                               ; preds = %4
  %43 = landingpad { ptr, i32 }
          cleanup
  %44 = extractvalue { ptr, i32 } %43, 0
  store ptr %44, ptr %13, align 8
  %45 = extractvalue { ptr, i32 } %43, 1
  store i32 %45, ptr %14, align 4
  br label %138

46:                                               ; preds = %31, %24
  %47 = landingpad { ptr, i32 }
          cleanup
  %48 = extractvalue { ptr, i32 } %47, 0
  store ptr %48, ptr %13, align 8
  %49 = extractvalue { ptr, i32 } %47, 1
  store i32 %49, ptr %14, align 4
  br label %131

50:                                               ; preds = %28
  store i32 0, ptr %10, align 4, !tbaa !33
  call void @llvm.lifetime.start.p0(i64 8, ptr %17) #10
  %51 = load ptr, ptr %7, align 8, !tbaa !8
  %52 = load ptr, ptr %19, align 8, !tbaa !10
  %53 = getelementptr inbounds ptr, ptr %52, i64 13
  %54 = load ptr, ptr %53, align 8
  %55 = invoke noundef ptr %54(ptr noundef nonnull align 8 dereferenceable(120) %19, ptr noundef %51, ptr noundef nonnull align 4 dereferenceable(4) %10)
          to label %56 unwind label %101

56:                                               ; preds = %50
  store ptr %55, ptr %17, align 8, !tbaa !3
  br label %57

57:                                               ; preds = %116, %56
  %58 = load ptr, ptr %17, align 8, !tbaa !3
  %59 = icmp ne ptr %58, null
  br i1 %59, label %60, label %68

60:                                               ; preds = %57
  %61 = load ptr, ptr %17, align 8, !tbaa !3
  %62 = load ptr, ptr %61, align 8, !tbaa !10
  %63 = getelementptr inbounds ptr, ptr %62, i64 7
  %64 = load ptr, ptr %63, align 8
  %65 = invoke noundef signext i8 %64(ptr noundef nonnull align 8 dereferenceable(72) %61)
          to label %66 unwind label %101

66:                                               ; preds = %60
  %67 = icmp ne i8 %65, 0
  br label %68

68:                                               ; preds = %66, %57
  %69 = phi i1 [ false, %57 ], [ %67, %66 ]
  br i1 %69, label %70, label %118

70:                                               ; preds = %68
  call void @llvm.lifetime.start.p0(i64 64, ptr %18) #10
  invoke void @_ZN6icu_7713UnicodeStringC2Ev(ptr noundef nonnull align 8 dereferenceable(64) %18)
          to label %71 unwind label %105

71:                                               ; preds = %70
  %72 = load ptr, ptr %17, align 8, !tbaa !3
  %73 = load ptr, ptr %72, align 8, !tbaa !10
  %74 = getelementptr inbounds ptr, ptr %73, i64 5
  %75 = load ptr, ptr %74, align 8
  %76 = invoke noundef nonnull align 8 dereferenceable(64) ptr %75(ptr noundef nonnull align 8 dereferenceable(72) %72, ptr noundef nonnull align 8 dereferenceable(64) %18)
          to label %77 unwind label %109

77:                                               ; preds = %71
  %78 = load ptr, ptr %12, align 8, !tbaa !35
  %79 = invoke noundef ptr @_ZNK6icu_779Hashtable3getERKNS_13UnicodeStringE(ptr noundef nonnull align 8 dereferenceable(88) %78, ptr noundef nonnull align 8 dereferenceable(64) %18)
          to label %80 unwind label %109

80:                                               ; preds = %77
  store ptr %79, ptr %15, align 8, !tbaa !18
  %81 = load ptr, ptr %15, align 8, !tbaa !18
  %82 = icmp ne ptr %81, null
  br i1 %82, label %83, label %113

83:                                               ; preds = %80
  %84 = load ptr, ptr %15, align 8, !tbaa !18
  %85 = load ptr, ptr %7, align 8, !tbaa !8
  %86 = load ptr, ptr %9, align 8, !tbaa !43
  %87 = load ptr, ptr %8, align 8, !tbaa !8
  %88 = load ptr, ptr %84, align 8, !tbaa !10
  %89 = getelementptr inbounds ptr, ptr %88, i64 5
  %90 = load ptr, ptr %89, align 8
  %91 = invoke noundef nonnull align 8 dereferenceable(64) ptr %90(ptr noundef nonnull align 8 dereferenceable(8) %84, ptr noundef nonnull align 8 dereferenceable(64) %85, ptr noundef nonnull align 8 dereferenceable(217) %86, ptr noundef nonnull align 8 dereferenceable(64) %87)
          to label %92 unwind label %109

92:                                               ; preds = %83
  %93 = load ptr, ptr %17, align 8, !tbaa !3
  %94 = icmp eq ptr %93, null
  br i1 %94, label %99, label %95

95:                                               ; preds = %92
  %96 = load ptr, ptr %93, align 8, !tbaa !10
  %97 = getelementptr inbounds ptr, ptr %96, i64 1
  %98 = load ptr, ptr %97, align 8
  call void %98(ptr noundef nonnull align 8 dereferenceable(72) %93) #10
  br label %99

99:                                               ; preds = %95, %92
  %100 = load ptr, ptr %8, align 8, !tbaa !8
  store ptr %100, ptr %5, align 8
  store i32 1, ptr %16, align 4
  br label %114

101:                                              ; preds = %60, %50
  %102 = landingpad { ptr, i32 }
          cleanup
  %103 = extractvalue { ptr, i32 } %102, 0
  store ptr %103, ptr %13, align 8
  %104 = extractvalue { ptr, i32 } %102, 1
  store i32 %104, ptr %14, align 4
  br label %130

105:                                              ; preds = %70
  %106 = landingpad { ptr, i32 }
          cleanup
  %107 = extractvalue { ptr, i32 } %106, 0
  store ptr %107, ptr %13, align 8
  %108 = extractvalue { ptr, i32 } %106, 1
  store i32 %108, ptr %14, align 4
  br label %117

109:                                              ; preds = %83, %77, %71
  %110 = landingpad { ptr, i32 }
          cleanup
  %111 = extractvalue { ptr, i32 } %110, 0
  store ptr %111, ptr %13, align 8
  %112 = extractvalue { ptr, i32 } %110, 1
  store i32 %112, ptr %14, align 4
  call void @_ZN6icu_7713UnicodeStringD1Ev(ptr noundef nonnull align 8 dereferenceable(64) %18) #10
  br label %117

113:                                              ; preds = %80
  store i32 0, ptr %16, align 4
  br label %114

114:                                              ; preds = %113, %99
  call void @_ZN6icu_7713UnicodeStringD1Ev(ptr noundef nonnull align 8 dereferenceable(64) %18) #10
  call void @llvm.lifetime.end.p0(i64 64, ptr %18) #10
  %115 = load i32, ptr %16, align 4
  switch i32 %115, label %126 [
    i32 0, label %116
  ]

116:                                              ; preds = %114
  br label %57, !llvm.loop !106

117:                                              ; preds = %109, %105
  call void @llvm.lifetime.end.p0(i64 64, ptr %18) #10
  br label %130

118:                                              ; preds = %68
  %119 = load ptr, ptr %17, align 8, !tbaa !3
  %120 = icmp eq ptr %119, null
  br i1 %120, label %125, label %121

121:                                              ; preds = %118
  %122 = load ptr, ptr %119, align 8, !tbaa !10
  %123 = getelementptr inbounds ptr, ptr %122, i64 1
  %124 = load ptr, ptr %123, align 8
  call void %124(ptr noundef nonnull align 8 dereferenceable(72) %119) #10
  br label %125

125:                                              ; preds = %121, %118
  store i32 0, ptr %16, align 4
  br label %126

126:                                              ; preds = %125, %114
  call void @llvm.lifetime.end.p0(i64 8, ptr %17) #10
  br label %127

127:                                              ; preds = %126, %40
  call void @llvm.lifetime.end.p0(i64 8, ptr %15) #10
  %128 = load i32, ptr %16, align 4
  switch i32 %128, label %133 [
    i32 0, label %129
  ]

129:                                              ; preds = %127
  br label %132

130:                                              ; preds = %117, %101
  call void @llvm.lifetime.end.p0(i64 8, ptr %17) #10
  br label %131

131:                                              ; preds = %130, %46
  call void @llvm.lifetime.end.p0(i64 8, ptr %15) #10
  br label %138

132:                                              ; preds = %129, %21
  store i32 0, ptr %16, align 4
  br label %133

133:                                              ; preds = %132, %127
  call void @llvm.lifetime.end.p0(i64 8, ptr %12) #10
  call void @_ZN6icu_775MutexD2Ev(ptr noundef nonnull align 8 dereferenceable(8) %11) #10
  call void @llvm.lifetime.end.p0(i64 8, ptr %11) #10
  call void @llvm.lifetime.end.p0(i64 4, ptr %10) #10
  %134 = load i32, ptr %16, align 4
  switch i32 %134, label %146 [
    i32 0, label %135
    i32 1, label %139
  ]

135:                                              ; preds = %133
  %136 = load ptr, ptr %8, align 8, !tbaa !8
  call void @_ZN6icu_7713UnicodeString10setToBogusEv(ptr noundef nonnull align 8 dereferenceable(64) %136)
  %137 = load ptr, ptr %8, align 8, !tbaa !8
  store ptr %137, ptr %5, align 8
  br label %139

138:                                              ; preds = %131, %42
  call void @llvm.lifetime.end.p0(i64 8, ptr %12) #10
  call void @_ZN6icu_775MutexD2Ev(ptr noundef nonnull align 8 dereferenceable(8) %11) #10
  call void @llvm.lifetime.end.p0(i64 8, ptr %11) #10
  call void @llvm.lifetime.end.p0(i64 4, ptr %10) #10
  br label %141

139:                                              ; preds = %135, %133
  %140 = load ptr, ptr %5, align 8
  ret ptr %140

141:                                              ; preds = %138
  %142 = load ptr, ptr %13, align 8
  %143 = load i32, ptr %14, align 4
  %144 = insertvalue { ptr, i32 } poison, ptr %142, 0
  %145 = insertvalue { ptr, i32 } %144, i32 %143, 1
  resume { ptr, i32 } %145

146:                                              ; preds = %133
  unreachable
}