; Function Attrs: mustprogress uwtable
define noundef nonnull align 8 dereferenceable(64) ptr @_ZNK6icu_7710ICUService14getDisplayNameERKNS_13UnicodeStringERS1_RKNS_6LocaleE(ptr noundef nonnull align 8 dereferenceable(120) %0, ptr noundef nonnull align 8 dereferenceable(64) %1, ptr noundef nonnull returned align 8 dereferenceable(64) %2, ptr noundef nonnull align 8 dereferenceable(217) %3) local_unnamed_addr #0 align 2 personality ptr @__gxx_personality_v0 {
  %5 = alloca i32, align 4
  %6 = alloca %"class.icu_77::UnicodeString", align 8
  call void @llvm.lifetime.start.p0(i64 4, ptr nonnull %5) #17
  store i32 0, ptr %5, align 4, !tbaa !19
  tail call void @umtx_lock_77(ptr noundef nonnull @_ZN6icu_77L4lockE)
  %7 = invoke noundef ptr @_ZNK6icu_7710ICUService15getVisibleIDMapER10UErrorCode(ptr noundef nonnull align 8 dereferenceable(120) %0, ptr noundef nonnull align 4 dereferenceable(4) %5)
          to label %8 unwind label %17

8:                                                ; preds = %4
  %.not = icmp eq ptr %7, null
  br i1 %.not, label %.loopexit, label %9

9:                                                ; preds = %8
  %10 = load ptr, ptr %7, align 8, !tbaa !21
  %11 = invoke noundef ptr @uhash_get_77(ptr noundef %10, ptr noundef nonnull align 8 dereferenceable(64) %1)
          to label %_ZNK6icu_779Hashtable3getERKNS_13UnicodeStringE.exit unwind label %19

_ZNK6icu_779Hashtable3getERKNS_13UnicodeStringE.exit: ; preds = %9
  %.not48 = icmp eq ptr %11, null
  br i1 %.not48, label %21, label %12

12:                                               ; preds = %_ZNK6icu_779Hashtable3getERKNS_13UnicodeStringE.exit
  %13 = load ptr, ptr %11, align 8, !tbaa !3
  %14 = getelementptr inbounds nuw i8, ptr %13, i64 40
  %15 = load ptr, ptr %14, align 8
  %16 = invoke noundef nonnull align 8 dereferenceable(64) ptr %15(ptr noundef nonnull align 8 dereferenceable(8) %11, ptr noundef nonnull align 8 dereferenceable(64) %1, ptr noundef nonnull align 8 dereferenceable(217) %3, ptr noundef nonnull align 8 dereferenceable(64) %2)
          to label %.loopexit unwind label %19

17:                                               ; preds = %4
  %18 = landingpad { ptr, i32 }
          cleanup
  br label %57

19:                                               ; preds = %9, %12
  %20 = landingpad { ptr, i32 }
          cleanup
  br label %57

21:                                               ; preds = %_ZNK6icu_779Hashtable3getERKNS_13UnicodeStringE.exit
  store i32 0, ptr %5, align 4, !tbaa !19
  %22 = load ptr, ptr %0, align 8, !tbaa !3
  %23 = getelementptr inbounds nuw i8, ptr %22, i64 104
  %24 = load ptr, ptr %23, align 8
  %25 = invoke noundef ptr %24(ptr noundef nonnull align 8 dereferenceable(120) %0, ptr noundef nonnull %1, ptr noundef nonnull align 4 dereferenceable(4) %5)
          to label %.preheader unwind label %.loopexit.split-lp

.preheader:                                       ; preds = %21
  %cond = icmp eq ptr %25, null
  br i1 %cond, label %.loopexit, label %.lr.ph

.lr.ph:                                           ; preds = %.preheader
  %26 = getelementptr inbounds nuw i8, ptr %6, i64 8
  br label %27

27:                                               ; preds = %49, %.lr.ph
  %28 = load ptr, ptr %25, align 8, !tbaa !3
  %29 = getelementptr inbounds nuw i8, ptr %28, i64 56
  %30 = load ptr, ptr %29, align 8
  %31 = invoke noundef signext i8 %30(ptr noundef nonnull align 8 dereferenceable(72) %25)
          to label %32 unwind label %.loopexit66.split

32:                                               ; preds = %27
  %.not50 = icmp eq i8 %31, 0
  br i1 %.not50, label %.critedge, label %33

33:                                               ; preds = %32
  call void @llvm.lifetime.start.p0(i64 64, ptr nonnull %6) #17
  store ptr getelementptr inbounds nuw inrange(-16, 88) (i8, ptr @_ZTVN6icu_7713UnicodeStringE, i64 16), ptr %6, align 8, !tbaa !3
  store i16 2, ptr %26, align 8, !tbaa !6
  %34 = load ptr, ptr %25, align 8, !tbaa !3
  %35 = getelementptr inbounds nuw i8, ptr %34, i64 40
  %36 = load ptr, ptr %35, align 8
  %37 = invoke noundef nonnull align 8 dereferenceable(64) ptr %36(ptr noundef nonnull align 8 dereferenceable(72) %25, ptr noundef nonnull align 8 dereferenceable(64) %6)
          to label %38 unwind label %.loopexit67.split

38:                                               ; preds = %33
  %39 = load ptr, ptr %7, align 8, !tbaa !21
  %40 = invoke noundef ptr @uhash_get_77(ptr noundef %39, ptr noundef nonnull align 8 dereferenceable(64) %6)
          to label %_ZNK6icu_779Hashtable3getERKNS_13UnicodeStringE.exit57 unwind label %.loopexit67.split

_ZNK6icu_779Hashtable3getERKNS_13UnicodeStringE.exit57: ; preds = %38
  %.not51 = icmp eq ptr %40, null
  br i1 %.not51, label %49, label %.split

.split:                                           ; preds = %_ZNK6icu_779Hashtable3getERKNS_13UnicodeStringE.exit57
  %41 = load ptr, ptr %40, align 8, !tbaa !3
  %42 = getelementptr inbounds nuw i8, ptr %41, i64 40
  %43 = load ptr, ptr %42, align 8
  %44 = invoke noundef nonnull align 8 dereferenceable(64) ptr %43(ptr noundef nonnull align 8 dereferenceable(8) %40, ptr noundef nonnull align 8 dereferenceable(64) %1, ptr noundef nonnull align 8 dereferenceable(217) %3, ptr noundef nonnull align 8 dereferenceable(64) %2)
          to label %.thread unwind label %.loopexit.split-lp68

.thread:                                          ; preds = %.split
  %45 = load ptr, ptr %25, align 8, !tbaa !3
  %46 = getelementptr inbounds nuw i8, ptr %45, i64 8
  %47 = load ptr, ptr %46, align 8
  call void %47(ptr noundef nonnull align 8 dereferenceable(72) %25) #17
  call void @_ZN6icu_7713UnicodeStringD1Ev(ptr noundef nonnull align 8 dereferenceable(64) %6) #17
  call void @llvm.lifetime.end.p0(i64 64, ptr nonnull %6) #17
  br label %.loopexit

.loopexit66.split:                                ; preds = %27
  %lpad.loopexit = landingpad { ptr, i32 }
          cleanup
  br label %57

.loopexit.split-lp:                               ; preds = %21
  %lpad.loopexit.split-lp = landingpad { ptr, i32 }
          cleanup
  br label %57

.loopexit67.split:                                ; preds = %33, %38
  %lpad.loopexit69 = landingpad { ptr, i32 }
          cleanup
  br label %48

.loopexit.split-lp68:                             ; preds = %.split
  %lpad.loopexit.split-lp70 = landingpad { ptr, i32 }
          cleanup
  br label %48

48:                                               ; preds = %.loopexit.split-lp68, %.loopexit67.split
  %lpad.phi71 = phi { ptr, i32 } [ %lpad.loopexit69, %.loopexit67.split ], [ %lpad.loopexit.split-lp70, %.loopexit.split-lp68 ]
  call void @_ZN6icu_7713UnicodeStringD1Ev(ptr noundef nonnull align 8 dereferenceable(64) %6) #17
  call void @llvm.lifetime.end.p0(i64 64, ptr nonnull %6) #17
  br label %57

49:                                               ; preds = %_ZNK6icu_779Hashtable3getERKNS_13UnicodeStringE.exit57
  call void @_ZN6icu_7713UnicodeStringD1Ev(ptr noundef nonnull align 8 dereferenceable(64) %6) #17
  call void @llvm.lifetime.end.p0(i64 64, ptr nonnull %6) #17
  br label %27

.critedge:                                        ; preds = %32
  %50 = load ptr, ptr %25, align 8, !tbaa !3
  %51 = getelementptr inbounds nuw i8, ptr %50, i64 8
  %52 = load ptr, ptr %51, align 8
  call void %52(ptr noundef nonnull align 8 dereferenceable(72) %25) #17
  br label %.loopexit

.loopexit:                                        ; preds = %.preheader, %.thread, %12, %.critedge, %8
  %switch = phi i1 [ true, %8 ], [ false, %.thread ], [ false, %12 ], [ true, %.critedge ], [ true, %.preheader ]
  invoke void @umtx_unlock_77(ptr noundef nonnull @_ZN6icu_77L4lockE)
          to label %_ZN6icu_775MutexD2Ev.exit unwind label %53

53:                                               ; preds = %.loopexit
  %54 = landingpad { ptr, i32 }
          catch ptr null
  %55 = extractvalue { ptr, i32 } %54, 0
  call void @__clang_call_terminate(ptr %55) #18
  unreachable

_ZN6icu_775MutexD2Ev.exit:                        ; preds = %.loopexit
  call void @llvm.lifetime.end.p0(i64 4, ptr nonnull %5) #17
  br i1 %switch, label %56, label %61

56:                                               ; preds = %_ZN6icu_775MutexD2Ev.exit
  call void @_ZN6icu_7713UnicodeString10setToBogusEv(ptr noundef nonnull align 8 dereferenceable(64) %2)
  br label %61

57:                                               ; preds = %.loopexit66.split, %.loopexit.split-lp, %19, %48, %17
  %.pn54.pn = phi { ptr, i32 } [ %18, %17 ], [ %20, %19 ], [ %lpad.phi71, %48 ], [ %lpad.loopexit, %.loopexit66.split ], [ %lpad.loopexit.split-lp, %.loopexit.split-lp ]
  invoke void @umtx_unlock_77(ptr noundef nonnull @_ZN6icu_77L4lockE)
          to label %_ZN6icu_775MutexD2Ev.exit58 unwind label %58

58:                                               ; preds = %57
  %59 = landingpad { ptr, i32 }
          catch ptr null
  %60 = extractvalue { ptr, i32 } %59, 0
  call void @__clang_call_terminate(ptr %60) #18
  unreachable

_ZN6icu_775MutexD2Ev.exit58:                      ; preds = %57
  call void @llvm.lifetime.end.p0(i64 4, ptr nonnull %5) #17
  resume { ptr, i32 } %.pn54.pn

61:                                               ; preds = %_ZN6icu_775MutexD2Ev.exit, %56
  ret ptr %2
}